(dp1
S'output'
p2
S"<type 'exceptions.TypeError'> cannot concatenate 'str' and 'NoneType' objects"
p3
sS'layer'
p4
S'G:\\web2py\\applications\\GuiArtec\\controllers/senderoEsculturas.py'
p5
sS'code'
p6
S'# intente algo como\nfrom gluon.serializers import loads_json #json serializa codigo (embebe o codifica)\n\ndef index():\n    return dict()\n\n\n\n\ndef esculturasMarkers1():\n    places = []\n    rows = db(db.camino.id != None).select()\n    for row in rows:\n        place = {\n        \'lat\': row.lat,\n        \'lng\': row.lng,\n        \'title\': "Nombre y foto",\n        \'type\': "Escultura",\n        \'location\' : {\'lat\':row.lat,\'lng\': row.lng},\n        \'stopover\' : True,\n        \'infoWindow\': {\'content\': "<h4 style=\'color:black;text-align:center\'"+row.nombre+"></h4><p style=\'color:black;text-align:center\'>Direccion: "+row.direccion+"</p><img width =\'100px\' src=\'"+URL(\'download\',args=row.file)+"\'/>"},\n        }\n        places.append(place)\n    return response.json(places)\n\ndef esculturasMarkers2():\n    places = []\n    rows = db(db.caminoe.id != None).select()\n    for row in rows:\n        place = {\n        \'lat\': row.lat,\n        \'lng\': row.lng,\n        \'title\': row.nombre,\n        #\'type\': "Escultura",\n        \'location\' : {\'lat\':row.lat,\'lng\': row.lng},\n        \'stopover\' : True,\n        \'file\': row.file,\n        \'infoWindow\': { \'content\': "<h4 style=\'color:black;text-align:center\'>"+row.nombre+"</h4><p style=\'color:black;text-align:center\'>Direccion: "+row.direccion+"</p><img width =\'100px\' src=\'"+URL(\'download\',args=row.file)+"\'/>"},\n        }\n        places.append(place)\n    return response.json(places)    \n\n#Hace falta crear mas senderos como este.\ndef crearSenderoEsculturas1():\n    paths = []\n    rows = db().select(db.camino.ALL,orderby=db.camino.id)\n    for row in rows:\n        path = {\n            \'location\' : {\'lat\':row.lat,\n                          \'lng\': row.lng},\n            \'stopover\' : True\n        }\n    paths.append(path)\n    return response.json(paths)\n\n\ndef crearSenderoEsculturas2():\n    paths = []\n    rows = db().select(db.caminoe.ALL,orderby=db.caminoe.id)\n    for row in rows:\n        path = {\n            \'location\' : {\'lat\':row.lat,\n                          \'lng\': row.lng},\n            \'stopover\' : True\n        }\n    paths.append(path)\n    return response.json(paths)\n\ndef download():\n    return response.download(request, db)\nresponse._vars=response._caller(esculturasMarkers1)\n'
p7
sS'snapshot'
p8
(dp9
S'exception'
p10
(dp11
S'__hash__'
p12
S"<method-wrapper '__hash__' of exceptions.TypeError object>"
p13
sS'__setattr__'
p14
S"<method-wrapper '__setattr__' of exceptions.TypeError object>"
p15
sS'__reduce_ex__'
p16
S'<built-in method __reduce_ex__ of exceptions.TypeError object>'
p17
sS'__getslice__'
p18
S"<method-wrapper '__getslice__' of exceptions.TypeError object>"
p19
sS'__getitem__'
p20
S"<method-wrapper '__getitem__' of exceptions.TypeError object>"
p21
sS'__setstate__'
p22
S'<built-in method __setstate__ of exceptions.TypeError object>'
p23
sS'__reduce__'
p24
S'<built-in method __reduce__ of exceptions.TypeError object>'
p25
sS'__str__'
p26
S"<method-wrapper '__str__' of exceptions.TypeError object>"
p27
sS'__format__'
p28
S'<built-in method __format__ of exceptions.TypeError object>'
p29
sS'__getattribute__'
p30
S"<method-wrapper '__getattribute__' of exceptions.TypeError object>"
p31
sS'__class__'
p32
S"<type 'exceptions.TypeError'>"
p33
sS'__unicode__'
p34
S'<built-in method __unicode__ of exceptions.TypeError object>'
p35
sS'__delattr__'
p36
S"<method-wrapper '__delattr__' of exceptions.TypeError object>"
p37
sS'__subclasshook__'
p38
S'<built-in method __subclasshook__ of type object>'
p39
sS'__repr__'
p40
S"<method-wrapper '__repr__' of exceptions.TypeError object>"
p41
sS'args'
p42
S'("cannot concatenate \'str\' and \'NoneType\' objects",)'
p43
sS'__dict__'
p44
S'{}'
p45
sS'__sizeof__'
p46
S'<built-in method __sizeof__ of exceptions.TypeError object>'
p47
sS'__doc__'
p48
S"'Inappropriate argument type.'"
p49
sS'__init__'
p50
S"<method-wrapper '__init__' of exceptions.TypeError object>"
p51
sS'__new__'
p52
S'<built-in method __new__ of type object>'
p53
ssS'evalue'
p54
S"cannot concatenate 'str' and 'NoneType' objects"
p55
sS'request'
p56
cgluon.html
XML_unpickle
p57
(S's\xbc\\\x00\x00<div><table><tr><td style="font-weight:bold;vertical-align:top;">ajax</td><td style="vertical-align:top;">:</td><td><div>True</div></td></tr><tr><td style="font-weight:bold;vertical-align:top;">application</td><td style="vertical-align:top;">:</td><td><div>GuiArtec</div></td></tr><tr><td style="font-weight:bold;vertical-align:top;">args</td><td style="vertical-align:top;">:</td><td><div><table></table></div></td></tr><tr><td style="font-weight:bold;vertical-align:top;">cid</td><td style="vertical-align:top;">:</td><td><div>None</div></td></tr><tr><td style="font-weight:bold;vertical-align:top;">client</td><td style="vertical-align:top;">:</td><td><div>127.0.0.1</div></td></tr><tr><td style="font-weight:bold;vertical-align:top;">controller</td><td style="vertical-align:top;">:</td><td><div>senderoEsculturas</div></td></tr><tr><td style="font-weight:bold;vertical-align:top;">cookies</td><td style="vertical-align:top;">:</td><td><div><table><tr><td style="font-weight:bold;vertical-align:top;">session_id_admin</td><td style="vertical-align:top;">:</td><td><div>127.0.0.1-b15fadda-8eb7-428f-b0cc-665180bcb677<table><tr><td style="font-weight:bold;vertical-align:top;">comment</td><td style="vertical-align:top;">:</td><td><div></div></td></tr><tr><td style="font-weight:bold;vertical-align:top;">domain</td><td style="vertical-align:top;">:</td><td><div></div></td></tr><tr><td style="font-weight:bold;vertical-align:top;">expires</td><td style="vertical-align:top;">:</td><td><div></div></td></tr><tr><td style="font-weight:bold;vertical-align:top;">httponly</td><td style="vertical-align:top;">:</td><td><div></div></td></tr><tr><td style="font-weight:bold;vertical-align:top;">max-age</td><td style="vertical-align:top;">:</td><td><div></div></td></tr><tr><td style="font-weight:bold;vertical-align:top;">path</td><td style="vertical-align:top;">:</td><td><div></div></td></tr><tr><td style="font-weight:bold;vertical-align:top;">secure</td><td style="vertical-align:top;">:</td><td><div></div></td></tr><tr><td style="font-weight:bold;vertical-align:top;">version</td><td style="vertical-align:top;">:</td><td><div></div></td></tr></table></div></td></tr><tr><td style="font-weight:bold;vertical-align:top;">session_id_guiartec</td><td style="vertical-align:top;">:</td><td><div>127.0.0.1-a4dbb156-15dc-4640-89f3-0ee85c5225ef<table><tr><td style="font-weight:bold;vertical-align:top;">comment</td><td style="vertical-align:top;">:</td><td><div></div></td></tr><tr><td style="font-weight:bold;vertical-align:top;">domain</td><td style="vertical-align:top;">:</td><td><div></div></td></tr><tr><td style="font-weight:bold;vertical-align:top;">expires</td><td style="vertical-align:top;">:</td><td><div></div></td></tr><tr><td style="font-weight:bold;vertical-align:top;">httponly</td><td style="vertical-align:top;">:</td><td><div></div></td></tr><tr><td style="font-weight:bold;vertical-align:top;">max-age</td><td style="vertical-align:top;">:</td><td><div></div></td></tr><tr><td style="font-weight:bold;vertical-align:top;">path</td><td style="vertical-align:top;">:</td><td><div></div></td></tr><tr><td style="font-weight:bold;vertical-align:top;">secure</td><td style="vertical-align:top;">:</td><td><div></div></td></tr><tr><td style="font-weight:bold;vertical-align:top;">version</td><td style="vertical-align:top;">:</td><td><div></div></td></tr></table></div></td></tr><tr><td style="font-weight:bold;vertical-align:top;">session_id_welcome</td><td style="vertical-align:top;">:</td><td><div>127.0.0.1-34283da2-5685-4fdb-9afd-ee771b6bc3a2<table><tr><td style="font-weight:bold;vertical-align:top;">comment</td><td style="vertical-align:top;">:</td><td><div></div></td></tr><tr><td style="font-weight:bold;vertical-align:top;">domain</td><td style="vertical-align:top;">:</td><td><div></div></td></tr><tr><td style="font-weight:bold;vertical-align:top;">expires</td><td style="vertical-align:top;">:</td><td><div></div></td></tr><tr><td style="font-weight:bold;vertical-align:top;">httponly</td><td style="vertical-align:top;">:</td><td><div></div></td></tr><tr><td style="font-weight:bold;vertical-align:top;">max-age</td><td style="vertical-align:top;">:</td><td><div></div></td></tr><tr><td style="font-weight:bold;vertical-align:top;">path</td><td style="vertical-align:top;">:</td><td><div></div></td></tr><tr><td style="font-weight:bold;vertical-align:top;">secure</td><td style="vertical-align:top;">:</td><td><div></div></td></tr><tr><td style="font-weight:bold;vertical-align:top;">version</td><td style="vertical-align:top;">:</td><td><div></div></td></tr></table></div></td></tr></table></div></td></tr><tr><td style="font-weight:bold;vertical-align:top;">env</td><td style="vertical-align:top;">:</td><td><div><table><tr><td style="font-weight:bold;vertical-align:top;">HTTP_ACCEPT</td><td style="vertical-align:top;">:</td><td><div>application/json, text/javascript, */*; q=0.01</div></td></tr><tr><td style="font-weight:bold;vertical-align:top;">HTTP_ACCEPT_ENCODING</td><td style="vertical-align:top;">:</td><td><div>gzip, deflate, sdch</div></td></tr><tr><td style="font-weight:bold;vertical-align:top;">HTTP_ACCEPT_LANGUAGE</td><td style="vertical-align:top;">:</td><td><div>es-419,es;q=0.8,en;q=0.6</div></td></tr><tr><td style="font-weight:bold;vertical-align:top;">HTTP_CACHE_CONTROL</td><td style="vertical-align:top;">:</td><td><div>max-age=0</div></td></tr><tr><td style="font-weight:bold;vertical-align:top;">HTTP_CONNECTION</td><td style="vertical-align:top;">:</td><td><div>keep-alive</div></td></tr><tr><td style="font-weight:bold;vertical-align:top;">HTTP_COOKIE</td><td style="vertical-align:top;">:</td><td><div>session_id_welcome=127.0.0.1-34283da2-5685-4fdb-9afd-ee771b6bc3a2; session_id_admin=127.0.0.1-b15fadda-8eb7-428f-b0cc-665180bcb677; session_id_guiartec=127.0.0.1-a4dbb156-15dc-4640-89f3-0ee85c5225ef</div></td></tr><tr><td style="font-weight:bold;vertical-align:top;">HTTP_HOST</td><td style="vertical-align:top;">:</td><td><div>127.0.0.1:8000</div></td></tr><tr><td style="font-weight:bold;vertical-align:top;">HTTP_REFERER</td><td style="vertical-align:top;">:</td><td><div>http://127.0.0.1:8000/GuiArtec/senderoEsculturas/index.html</div></td></tr><tr><td style="font-weight:bold;vertical-align:top;">HTTP_USER_AGENT</td><td style="vertical-align:top;">:</td><td><div>Mozilla/5.0 (Windows NT 6.1; Win64; x64) AppleWebKit/537.36 (KHTML, like Gecko) Chrome/51.0.2704.103 Safari/537.36</div></td></tr><tr><td style="font-weight:bold;vertical-align:top;">HTTP_X_REQUESTED_WITH</td><td style="vertical-align:top;">:</td><td><div>XMLHttpRequest</div></td></tr><tr><td style="font-weight:bold;vertical-align:top;">PATH_INFO</td><td style="vertical-align:top;">:</td><td><div>/GuiArtec/senderoEsculturas/esculturasMarkers1</div></td></tr><tr><td style="font-weight:bold;vertical-align:top;">QUERY_STRING</td><td style="vertical-align:top;">:</td><td><div></div></td></tr><tr><td style="font-weight:bold;vertical-align:top;">REMOTE_ADDR</td><td style="vertical-align:top;">:</td><td><div>127.0.0.1</div></td></tr><tr><td style="font-weight:bold;vertical-align:top;">REMOTE_PORT</td><td style="vertical-align:top;">:</td><td><div>2726</div></td></tr><tr><td style="font-weight:bold;vertical-align:top;">REQUEST_METHOD</td><td style="vertical-align:top;">:</td><td><div>GET</div></td></tr><tr><td style="font-weight:bold;vertical-align:top;">SCRIPT_NAME</td><td style="vertical-align:top;">:</td><td><div></div></td></tr><tr><td style="font-weight:bold;vertical-align:top;">SERVER_NAME</td><td style="vertical-align:top;">:</td><td><div>Informatorio-PC</div></td></tr><tr><td style="font-weight:bold;vertical-align:top;">SERVER_PORT</td><td style="vertical-align:top;">:</td><td><div>8000</div></td></tr><tr><td style="font-weight:bold;vertical-align:top;">SERVER_PROTOCOL</td><td style="vertical-align:top;">:</td><td><div>HTTP/1.1</div></td></tr><tr><td style="font-weight:bold;vertical-align:top;">SERVER_SOFTWARE</td><td style="vertical-align:top;">:</td><td><div>Rocket 1.2.6</div></td></tr><tr><td style="font-weight:bold;vertical-align:top;">app_folders</td><td style="vertical-align:top;">:</td><td><div>set([&#x27;G:\\\\web2py\\\\applications\\\\welcome\\\\&#x27;, &#x27;G:\\\\web2py\\\\applications\\\\admin\\\\&#x27;, &#x27;G:\\\\web2py\\\\applications\\\\GuiArtec\\\\&#x27;])</div></td></tr><tr><td style="font-weight:bold;vertical-align:top;">applications_parent</td><td style="vertical-align:top;">:</td><td><div>G:\\web2py</div></td></tr><tr><td style="font-weight:bold;vertical-align:top;">cmd_args</td><td style="vertical-align:top;">:</td><td><div><table></table></div></td></tr><tr><td style="font-weight:bold;vertical-align:top;">cmd_options</td><td style="vertical-align:top;">:</td><td><div>&lt;Values at 0x30f0210: {&#x27;verbose&#x27;: False, &#x27;ip&#x27;: &#x27;127.0.0.1&#x27;, &#x27;debuglevel&#x27;: 30, &#x27;with_scheduler&#x27;: False, &#x27;shutdown_timeout&#x27;: 5, &#x27;taskbar&#x27;: False, &#x27;with_coverage&#x27;: False, &#x27;pid_filename&#x27;: &#x27;httpserver.pid&#x27;, &#x27;maxthreads&#x27;: None, &#x27;softcron&#x27;: False, &#x27;server_name&#x27;: &#x27;Informatorio-PC&#x27;, &#x27;bpython&#x27;: False, &#x27;nogui&#x27;: False, &#x27;port&#x27;: 8000, &#x27;print_errors&#x27;: False, &#x27;extcron&#x27;: False, &#x27;runcron&#x27;: False, &#x27;run_system_tests&#x27;: False, &#x27;test&#x27;: None, &#x27;folder&#x27;: &#x27;G:\\\\web2py&#x27;, &#x27;config&#x27;: &#x27;&#x27;, &#x27;minthreads&#x27;: None, &#x27;shell&#x27;: None, &#x27;run&#x27;: &#x27;&#x27;, &#x27;log_filename&#x27;: &#x27;httpserver.log&#x27;, &#x27;profiler_dir&#x27;: None, &#x27;args&#x27;: [&#x27;&#x27;], &#x27;socket_timeout&#x27;: 5, &#x27;ssl_ca_certificate&#x27;: None, &#x27;scheduler&#x27;: None, &#x27;interfaces&#x27;: None, &#x27;ssl_private_key&#x27;: &#x27;&#x27;, &#x27;gae&#x27;: None, &#x27;password&#x27;: &#x27;******&#x27;, &#x27;request_queue_size&#x27;: 5, &#x27;ssl_certificate&#x27;: &#x27;&#x27;, &#x27;cronjob&#x27;: False, &#x27;numthreads&#x27;: None, &#x27;quiet&#x27;: False, &#x27;import_models&#x27;: False, &#x27;timeout&#x27;: 10, &#x27;plain&#x27;: False, &#x27;nobanner&#x27;: False}&gt;</div></td></tr><tr><td style="font-weight:bold;vertical-align:top;">db_sessions</td><td style="vertical-align:top;">:</td><td><div>set([])</div></td></tr><tr><td style="font-weight:bold;vertical-align:top;">debugging</td><td style="vertical-align:top;">:</td><td><div>True</div></td></tr><tr><td style="font-weight:bold;vertical-align:top;">gluon_parent</td><td style="vertical-align:top;">:</td><td><div>G:\\web2py</div></td></tr><tr><td style="font-weight:bold;vertical-align:top;">http_accept</td><td style="vertical-align:top;">:</td><td><div>application/json, text/javascript, */*; q=0.01</div></td></tr><tr><td style="font-weight:bold;vertical-align:top;">http_accept_encoding</td><td style="vertical-align:top;">:</td><td><div>gzip, deflate, sdch</div></td></tr><tr><td style="font-weight:bold;vertical-align:top;">http_accept_language</td><td style="vertical-align:top;">:</td><td><div>es-419,es;q=0.8,en;q=0.6</div></td></tr><tr><td style="font-weight:bold;vertical-align:top;">http_cache_control</td><td style="vertical-align:top;">:</td><td><div>max-age=0</div></td></tr><tr><td style="font-weight:bold;vertical-align:top;">http_connection</td><td style="vertical-align:top;">:</td><td><div>keep-alive</div></td></tr><tr><td style="font-weight:bold;vertical-align:top;">http_cookie</td><td style="vertical-align:top;">:</td><td><div>session_id_welcome=127.0.0.1-34283da2-5685-4fdb-9afd-ee771b6bc3a2; session_id_admin=127.0.0.1-b15fadda-8eb7-428f-b0cc-665180bcb677; session_id_guiartec=127.0.0.1-a4dbb156-15dc-4640-89f3-0ee85c5225ef</div></td></tr><tr><td style="font-weight:bold;vertical-align:top;">http_host</td><td style="vertical-align:top;">:</td><td><div>127.0.0.1:8000</div></td></tr><tr><td style="font-weight:bold;vertical-align:top;">http_referer</td><td style="vertical-align:top;">:</td><td><div>http://127.0.0.1:8000/GuiArtec/senderoEsculturas/index.html</div></td></tr><tr><td style="font-weight:bold;vertical-align:top;">http_user_agent</td><td style="vertical-align:top;">:</td><td><div>Mozilla/5.0 (Windows NT 6.1; Win64; x64) AppleWebKit/537.36 (KHTML, like Gecko) Chrome/51.0.2704.103 Safari/537.36</div></td></tr><tr><td style="font-weight:bold;vertical-align:top;">http_x_requested_with</td><td style="vertical-align:top;">:</td><td><div>XMLHttpRequest</div></td></tr><tr><td style="font-weight:bold;vertical-align:top;">is_jython</td><td style="vertical-align:top;">:</td><td><div>False</div></td></tr><tr><td style="font-weight:bold;vertical-align:top;">is_pypy</td><td style="vertical-align:top;">:</td><td><div>False</div></td></tr><tr><td style="font-weight:bold;vertical-align:top;">is_source</td><td style="vertical-align:top;">:</td><td><div>False</div></td></tr><tr><td style="font-weight:bold;vertical-align:top;">local_hosts</td><td style="vertical-align:top;">:</td><td><div><table><tr><td><div>Informatorio-PC</div></td></tr><tr><td><div>fe80::d5b8:9c85:b1a7:c2bb%10</div></td></tr><tr><td><div>::ffff:127.0.0.1</div></td></tr><tr><td><div>::1</div></td></tr><tr><td><div>192.168.10.84</div></td></tr><tr><td><div>127.0.0.1</div></td></tr></table></div></td></tr><tr><td style="font-weight:bold;vertical-align:top;">path_info</td><td style="vertical-align:top;">:</td><td><div>/GuiArtec/senderoEsculturas/esculturasMarkers1</div></td></tr><tr><td style="font-weight:bold;vertical-align:top;">query_string</td><td style="vertical-align:top;">:</td><td><div></div></td></tr><tr><td style="font-weight:bold;vertical-align:top;">remote_addr</td><td style="vertical-align:top;">:</td><td><div>127.0.0.1</div></td></tr><tr><td style="font-weight:bold;vertical-align:top;">remote_port</td><td style="vertical-align:top;">:</td><td><div>2726</div></td></tr><tr><td style="font-weight:bold;vertical-align:top;">request_method</td><td style="vertical-align:top;">:</td><td><div>GET</div></td></tr><tr><td style="font-weight:bold;vertical-align:top;">request_uri</td><td style="vertical-align:top;">:</td><td><div>/GuiArtec/senderoEsculturas/esculturasMarkers1</div></td></tr><tr><td style="font-weight:bold;vertical-align:top;">script_name</td><td style="vertical-align:top;">:</td><td><div></div></td></tr><tr><td style="font-weight:bold;vertical-align:top;">server_name</td><td style="vertical-align:top;">:</td><td><div>Informatorio-PC</div></td></tr><tr><td style="font-weight:bold;vertical-align:top;">server_port</td><td style="vertical-align:top;">:</td><td><div>8000</div></td></tr><tr><td style="font-weight:bold;vertical-align:top;">server_protocol</td><td style="vertical-align:top;">:</td><td><div>HTTP/1.1</div></td></tr><tr><td style="font-weight:bold;vertical-align:top;">server_software</td><td style="vertical-align:top;">:</td><td><div>Rocket 1.2.6</div></td></tr><tr><td style="font-weight:bold;vertical-align:top;">web2py_path</td><td style="vertical-align:top;">:</td><td><div>G:\\web2py</div></td></tr><tr><td style="font-weight:bold;vertical-align:top;">web2py_version</td><td style="vertical-align:top;">:</td><td><div>2.14.6-stable+timestamp.2016.05.10.00.21.47</div></td></tr><tr><td style="font-weight:bold;vertical-align:top;">wsgi.errors</td><td style="vertical-align:top;">:</td><td><div>&lt;open file &#x27;&lt;stderr&gt;&#x27;, mode &#x27;w&#x27; at 0x01C8D0D0&gt;</div></td></tr><tr><td style="font-weight:bold;vertical-align:top;">wsgi.file_wrapper</td><td style="vertical-align:top;">:</td><td><div>&lt;class wsgiref.util.FileWrapper at 0x03268490&gt;</div></td></tr><tr><td style="font-weight:bold;vertical-align:top;">wsgi.input</td><td style="vertical-align:top;">:</td><td><div>&lt;socket._fileobject object at 0x0B33C2B0&gt;</div></td></tr><tr><td style="font-weight:bold;vertical-align:top;">wsgi.multiprocess</td><td style="vertical-align:top;">:</td><td><div>False</div></td></tr><tr><td style="font-weight:bold;vertical-align:top;">wsgi.multithread</td><td style="vertical-align:top;">:</td><td><div>True</div></td></tr><tr><td style="font-weight:bold;vertical-align:top;">wsgi.run_once</td><td style="vertical-align:top;">:</td><td><div>False</div></td></tr><tr><td style="font-weight:bold;vertical-align:top;">wsgi.url_scheme</td><td style="vertical-align:top;">:</td><td><div>http</div></td></tr><tr><td style="font-weight:bold;vertical-align:top;">wsgi.version</td><td style="vertical-align:top;">:</td><td><div><table><tr><td><div>1</div></td></tr><tr><td><div>0</div></td></tr></table></div></td></tr><tr><td style="font-weight:bold;vertical-align:top;">wsgi_errors</td><td style="vertical-align:top;">:</td><td><div>&lt;open file &#x27;&lt;stderr&gt;&#x27;, mode &#x27;w&#x27; at 0x01C8D0D0&gt;</div></td></tr><tr><td style="font-weight:bold;vertical-align:top;">wsgi_file_wrapper</td><td style="vertical-align:top;">:</td><td><div>&lt;class wsgiref.util.FileWrapper at 0x03268490&gt;</div></td></tr><tr><td style="font-weight:bold;vertical-align:top;">wsgi_input</td><td style="vertical-align:top;">:</td><td><div>&lt;socket._fileobject object at 0x0B33C2B0&gt;</div></td></tr><tr><td style="font-weight:bold;vertical-align:top;">wsgi_multiprocess</td><td style="vertical-align:top;">:</td><td><div>False</div></td></tr><tr><td style="font-weight:bold;vertical-align:top;">wsgi_multithread</td><td style="vertical-align:top;">:</td><td><div>True</div></td></tr><tr><td style="font-weight:bold;vertical-align:top;">wsgi_run_once</td><td style="vertical-align:top;">:</td><td><div>False</div></td></tr><tr><td style="font-weight:bold;vertical-align:top;">wsgi_url_scheme</td><td style="vertical-align:top;">:</td><td><div>http</div></td></tr><tr><td style="font-weight:bold;vertical-align:top;">wsgi_version</td><td style="vertical-align:top;">:</td><td><div><table><tr><td><div>1</div></td></tr><tr><td><div>0</div></td></tr></table></div></td></tr></table></div></td></tr><tr><td style="font-weight:bold;vertical-align:top;">extension</td><td style="vertical-align:top;">:</td><td><div>html</div></td></tr><tr><td style="font-weight:bold;vertical-align:top;">folder</td><td style="vertical-align:top;">:</td><td><div>G:\\web2py\\applications\\GuiArtec\\</div></td></tr><tr><td style="font-weight:bold;vertical-align:top;">function</td><td style="vertical-align:top;">:</td><td><div>esculturasMarkers1</div></td></tr><tr><td style="font-weight:bold;vertical-align:top;">global_settings</td><td style="vertical-align:top;">:</td><td><div><table><tr><td style="font-weight:bold;vertical-align:top;">app_folders</td><td style="vertical-align:top;">:</td><td><div>set([&#x27;G:\\\\web2py\\\\applications\\\\welcome\\\\&#x27;, &#x27;G:\\\\web2py\\\\applications\\\\admin\\\\&#x27;, &#x27;G:\\\\web2py\\\\applications\\\\GuiArtec\\\\&#x27;])</div></td></tr><tr><td style="font-weight:bold;vertical-align:top;">applications_parent</td><td style="vertical-align:top;">:</td><td><div>G:\\web2py</div></td></tr><tr><td style="font-weight:bold;vertical-align:top;">cmd_args</td><td style="vertical-align:top;">:</td><td><div><table></table></div></td></tr><tr><td style="font-weight:bold;vertical-align:top;">cmd_options</td><td style="vertical-align:top;">:</td><td><div>&lt;Values at 0x30f0210: {&#x27;verbose&#x27;: False, &#x27;ip&#x27;: &#x27;127.0.0.1&#x27;, &#x27;debuglevel&#x27;: 30, &#x27;with_scheduler&#x27;: False, &#x27;shutdown_timeout&#x27;: 5, &#x27;taskbar&#x27;: False, &#x27;with_coverage&#x27;: False, &#x27;pid_filename&#x27;: &#x27;httpserver.pid&#x27;, &#x27;maxthreads&#x27;: None, &#x27;softcron&#x27;: False, &#x27;server_name&#x27;: &#x27;Informatorio-PC&#x27;, &#x27;bpython&#x27;: False, &#x27;nogui&#x27;: False, &#x27;port&#x27;: 8000, &#x27;print_errors&#x27;: False, &#x27;extcron&#x27;: False, &#x27;runcron&#x27;: False, &#x27;run_system_tests&#x27;: False, &#x27;test&#x27;: None, &#x27;folder&#x27;: &#x27;G:\\\\web2py&#x27;, &#x27;config&#x27;: &#x27;&#x27;, &#x27;minthreads&#x27;: None, &#x27;shell&#x27;: None, &#x27;run&#x27;: &#x27;&#x27;, &#x27;log_filename&#x27;: &#x27;httpserver.log&#x27;, &#x27;profiler_dir&#x27;: None, &#x27;args&#x27;: [&#x27;&#x27;], &#x27;socket_timeout&#x27;: 5, &#x27;ssl_ca_certificate&#x27;: None, &#x27;scheduler&#x27;: None, &#x27;interfaces&#x27;: None, &#x27;ssl_private_key&#x27;: &#x27;&#x27;, &#x27;gae&#x27;: None, &#x27;password&#x27;: &#x27;******&#x27;, &#x27;request_queue_size&#x27;: 5, &#x27;ssl_certificate&#x27;: &#x27;&#x27;, &#x27;cronjob&#x27;: False, &#x27;numthreads&#x27;: None, &#x27;quiet&#x27;: False, &#x27;import_models&#x27;: False, &#x27;timeout&#x27;: 10, &#x27;plain&#x27;: False, &#x27;nobanner&#x27;: False}&gt;</div></td></tr><tr><td style="font-weight:bold;vertical-align:top;">db_sessions</td><td style="vertical-align:top;">:</td><td><div>set([])</div></td></tr><tr><td style="font-weight:bold;vertical-align:top;">debugging</td><td style="vertical-align:top;">:</td><td><div>True</div></td></tr><tr><td style="font-weight:bold;vertical-align:top;">gluon_parent</td><td style="vertical-align:top;">:</td><td><div>G:\\web2py</div></td></tr><tr><td style="font-weight:bold;vertical-align:top;">is_jython</td><td style="vertical-align:top;">:</td><td><div>False</div></td></tr><tr><td style="font-weight:bold;vertical-align:top;">is_pypy</td><td style="vertical-align:top;">:</td><td><div>False</div></td></tr><tr><td style="font-weight:bold;vertical-align:top;">is_source</td><td style="vertical-align:top;">:</td><td><div>False</div></td></tr><tr><td style="font-weight:bold;vertical-align:top;">local_hosts</td><td style="vertical-align:top;">:</td><td><div><table><tr><td><div>Informatorio-PC</div></td></tr><tr><td><div>fe80::d5b8:9c85:b1a7:c2bb%10</div></td></tr><tr><td><div>::ffff:127.0.0.1</div></td></tr><tr><td><div>::1</div></td></tr><tr><td><div>192.168.10.84</div></td></tr><tr><td><div>127.0.0.1</div></td></tr></table></div></td></tr><tr><td style="font-weight:bold;vertical-align:top;">web2py_version</td><td style="vertical-align:top;">:</td><td><div>2.14.6-stable+timestamp.2016.05.10.00.21.47</div></td></tr></table></div></td></tr><tr><td style="font-weight:bold;vertical-align:top;">is_https</td><td style="vertical-align:top;">:</td><td><div>False</div></td></tr><tr><td style="font-weight:bold;vertical-align:top;">is_local</td><td style="vertical-align:top;">:</td><td><div>True</div></td></tr><tr><td style="font-weight:bold;vertical-align:top;">is_restful</td><td style="vertical-align:top;">:</td><td><div>False</div></td></tr><tr><td style="font-weight:bold;vertical-align:top;">is_scheduler</td><td style="vertical-align:top;">:</td><td><div>False</div></td></tr><tr><td style="font-weight:bold;vertical-align:top;">is_shell</td><td style="vertical-align:top;">:</td><td><div>False</div></td></tr><tr><td style="font-weight:bold;vertical-align:top;">now</td><td style="vertical-align:top;">:</td><td><div>datetime.datetime(2016, 7, 12, 11, 16, 38, 234000)</div></td></tr><tr><td style="font-weight:bold;vertical-align:top;">raw_args</td><td style="vertical-align:top;">:</td><td><div></div></td></tr><tr><td style="font-weight:bold;vertical-align:top;">raw_extension</td><td style="vertical-align:top;">:</td><td><div>None</div></td></tr><tr><td style="font-weight:bold;vertical-align:top;">url</td><td style="vertical-align:top;">:</td><td><div>/GuiArtec/senderoEsculturas/esculturasMarkers1</div></td></tr><tr><td style="font-weight:bold;vertical-align:top;">utcnow</td><td style="vertical-align:top;">:</td><td><div>datetime.datetime(2016, 7, 12, 14, 16, 38, 234000)</div></td></tr><tr><td style="font-weight:bold;vertical-align:top;">wsgi</td><td style="vertical-align:top;">:</td><td><div>&lt;gluon.main.LazyWSGI object at 0x0B35A610&gt;</div></td></tr></table></div>'
tRp58
sS'frames'
p59
(lp60
(dp61
S'file'
p62
S'G:\\web2py\\gluon\\restricted.py'
p63
sS'dump'
p64
(dp65
S'environment'
p66
S"{'A': <class 'gluon.html.A'>, 'ANY_OF': <class 'gluon.validators.ANY_OF'>, 'ASSIGNJS': <function ASSIGNJS>, 'AppConfig': <function AppConfig>, 'Auth': <class 'gluon.tools.Auth'>, 'B': <class 'gluon.html.B'>, 'BEAUTIFY': <class 'gluon.html.BEAUTIFY'>, 'BODY': <class 'gluon.html.BODY'>, 'BR': <class 'gluon.html.BR'>, 'BUTTON': <class 'gluon.html.BUTTON'>, ...}"
p67
sS'ccode'
p68
S'<code object <module> at 0B57A0F8, file "G:\\web2...iArtec\\controllers/senderoEsculturas.py", line 2>'
p69
ssS'lnum'
p70
I227
sS'lines'
p71
(dp72
I224
S'            ccode = code'
p73
sI225
S'        else:'
p74
sI226
S'            ccode = compile2(code, layer)'
p75
sI227
S'        exec ccode in environment'
p76
sI228
S'    except HTTP:'
p77
sI229
S'        raise'
p78
sI230
S'    except RestrictedError:'
p79
sI231
S'        # do not encapsulate (obfuscate) the original RestrictedError'
p80
sI222
S'    try:'
p81
sI223
S'        if isinstance(code, types.CodeType):'
p82
ssS'call'
p83
S"(code='# intente algo como\\nfrom gluon.serializers impor...ponse._vars=response._caller(esculturasMarkers1)\\n', environment={'A': <class 'gluon.html.A'>, 'ANY_OF': <class 'gluon.validators.ANY_OF'>, 'ASSIGNJS': <function ASSIGNJS>, 'AppConfig': <function AppConfig>, 'Auth': <class 'gluon.tools.Auth'>, 'B': <class 'gluon.html.B'>, 'BEAUTIFY': <class 'gluon.html.BEAUTIFY'>, 'BODY': <class 'gluon.html.BODY'>, 'BR': <class 'gluon.html.BR'>, 'BUTTON': <class 'gluon.html.BUTTON'>, ...}, layer=r'G:\\web2py\\applications\\GuiArtec\\controllers/senderoEsculturas.py')"
p84
sS'func'
p85
S'restricted'
p86
sa(dp87
g62
S'G:\\web2py\\applications\\GuiArtec\\controllers\\senderoEsculturas.py'
p88
sg64
(dp89
sg70
I71
sg71
(dp90
I64
S"            'stopover' : True"
p91
sI65
S'        }'
p92
sI66
S'    paths.append(path)'
p93
sI67
S'    return response.json(paths)'
p94
sI68
S''
sI69
S'def download():'
p95
sI70
S'    return response.download(request, db)'
p96
sI61
S'        path = {'
p97
sI62
S"            'location' : {'lat':row.lat,"
p98
sI63
S"                          'lng': row.lng},"
p99
ssg83
S'()'
p100
sg85
S'<module>'
p101
sa(dp102
g62
S'G:\\web2py\\gluon\\globals.py'
p103
sg64
(dp104
S'self'
p105
S'undefined'
p106
sS'f'
S'<function esculturasMarkers1>'
p107
ssg70
I417
sg71
(dp108
I416
S'        self._vars = None'
p109
sI417
S'        self._caller = lambda f: f()'
p110
sI418
S'        self._view_environment = None'
p111
sI419
S'        self._custom_commit = None'
p112
sI420
S'        self._custom_rollback = None'
p113
sI421
S"        self.generic_patterns = ['*']"
p114
sI412
S"        self.flash = ''            # used by the default view layout"
p115
sI413
S'        self.meta = Storage()      # used by web2py_ajax.html'
p116
sI414
S'        self.menu = []             # used by the default view layout'
p117
sI415
S'        self.files = []            # used by web2py_ajax.html'
p118
ssg83
S'(f=<function esculturasMarkers1>)'
p119
sg85
S'<lambda>'
p120
sa(dp121
g62
S'G:\\web2py\\applications\\GuiArtec\\controllers\\senderoEsculturas.py'
p122
sg64
(dp123
S'row.file'
p124
S'None'
p125
sS'args'
p126
g106
sS'global URL'
p127
S'<function URL>'
p128
sS'row.nombre'
p129
S'None'
p130
sS'row.direccion'
p131
S"'Juan Domingo Per\\xc3\\xb3n 1'"
p132
sS'row'
p133
S"<Row {'direccion': 'Juan Domingo Per\\xc3\\xb3n 1'...9, 'nombre': None, 'lng': -58.989061, 'id': 34L}>"
p134
ssg70
I21
sg71
(dp135
I16
S"        'lng': row.lng,"
p136
sI17
S'        \'title\': "Nombre y foto",'
p137
sI18
S'        \'type\': "Escultura",'
p138
sI19
S"        'location' : {'lat':row.lat,'lng': row.lng},"
p139
sI20
S"        'stopover' : True,"
p140
sI21
S'        \'infoWindow\': {\'content\': "<h4 style=\'color:black;text-align:center\'"+row.nombre+"></h4><p style=\'color:black;text-align:center\'>Direccion: "+row.direccion+"</p><img width =\'100px\' src=\'"+URL(\'download\',args=row.file)+"\'/>"},'
p141
sI22
S'        }'
p142
sI23
S'        places.append(place)'
p143
sI24
S'    return response.json(places)'
p144
sI25
S''
ssg83
S'()'
p145
sg85
S'esculturasMarkers1'
p146
sasS'pyver'
p147
S'Python 2.7.9: G:\\web2py\\web2py.exe (prefix: C:\\Python27)'
p148
sS'session'
p149
g57
(S's;\x01\x00\x00<div><table><tr><td style="font-weight:bold;vertical-align:top;">last_orderby</td><td style="vertical-align:top;">:</td><td><div>None</div></td></tr><tr><td style="font-weight:bold;vertical-align:top;">last_query</td><td style="vertical-align:top;">:</td><td><div>db.esculturag.id&gt;0</div></td></tr></table></div>'
tRp150
sS'etype'
p151
S"<type 'exceptions.TypeError'>"
p152
sS'date'
p153
S'Tue Jul 12 11:16:39 2016'
p154
sS'response'
p155
g57
(S's\x1f\x1b\x00\x00<div><table><tr><td style="font-weight:bold;vertical-align:top;">body</td><td style="vertical-align:top;">:</td><td><div>&lt;cStringIO.StringO object at 0x0B35A720&gt;</div></td></tr><tr><td style="font-weight:bold;vertical-align:top;">cookies</td><td style="vertical-align:top;">:</td><td><div><table><tr><td style="font-weight:bold;vertical-align:top;">session_id_guiartec</td><td style="vertical-align:top;">:</td><td><div>127.0.0.1-a4dbb156-15dc-4640-89f3-0ee85c5225ef<table><tr><td style="font-weight:bold;vertical-align:top;">comment</td><td style="vertical-align:top;">:</td><td><div></div></td></tr><tr><td style="font-weight:bold;vertical-align:top;">domain</td><td style="vertical-align:top;">:</td><td><div></div></td></tr><tr><td style="font-weight:bold;vertical-align:top;">expires</td><td style="vertical-align:top;">:</td><td><div></div></td></tr><tr><td style="font-weight:bold;vertical-align:top;">httponly</td><td style="vertical-align:top;">:</td><td><div></div></td></tr><tr><td style="font-weight:bold;vertical-align:top;">max-age</td><td style="vertical-align:top;">:</td><td><div></div></td></tr><tr><td style="font-weight:bold;vertical-align:top;">path</td><td style="vertical-align:top;">:</td><td><div>/</div></td></tr><tr><td style="font-weight:bold;vertical-align:top;">secure</td><td style="vertical-align:top;">:</td><td><div></div></td></tr><tr><td style="font-weight:bold;vertical-align:top;">version</td><td style="vertical-align:top;">:</td><td><div></div></td></tr></table></div></td></tr></table></div></td></tr><tr><td style="font-weight:bold;vertical-align:top;">delimiters</td><td style="vertical-align:top;">:</td><td><div><table><tr><td><div>{{</div></td></tr><tr><td><div>}}</div></td></tr></table></div></td></tr><tr><td style="font-weight:bold;vertical-align:top;">files</td><td style="vertical-align:top;">:</td><td><div><table></table></div></td></tr><tr><td style="font-weight:bold;vertical-align:top;">flash</td><td style="vertical-align:top;">:</td><td><div></div></td></tr><tr><td style="font-weight:bold;vertical-align:top;">form_label_separator</td><td style="vertical-align:top;">:</td><td><div></div></td></tr><tr><td style="font-weight:bold;vertical-align:top;">formstyle</td><td style="vertical-align:top;">:</td><td><div>bootstrap3_inline</div></td></tr><tr><td style="font-weight:bold;vertical-align:top;">generic_patterns</td><td style="vertical-align:top;">:</td><td><div><table><tr><td><div>*</div></td></tr></table></div></td></tr><tr><td style="font-weight:bold;vertical-align:top;">headers</td><td style="vertical-align:top;">:</td><td><div><table><tr><td style="font-weight:bold;vertical-align:top;">X-Powered-By</td><td style="vertical-align:top;">:</td><td><div>web2py</div></td></tr></table></div></td></tr><tr><td style="font-weight:bold;vertical-align:top;">menu</td><td style="vertical-align:top;">:</td><td><div><table><tr><td><div><table><tr><td><div>Menu Principal</div></td></tr><tr><td><div>False</div></td></tr><tr><td><div>/GuiArtec/default/index</div></td></tr><tr><td><div><table></table></div></td></tr></table></div></td></tr></table></div></td></tr><tr><td style="font-weight:bold;vertical-align:top;">meta</td><td style="vertical-align:top;">:</td><td><div><table><tr><td style="font-weight:bold;vertical-align:top;">author</td><td style="vertical-align:top;">:</td><td><div>you &lt;you@example.com&gt;</div></td></tr><tr><td style="font-weight:bold;vertical-align:top;">description</td><td style="vertical-align:top;">:</td><td><div></div></td></tr><tr><td style="font-weight:bold;vertical-align:top;">keywords</td><td style="vertical-align:top;">:</td><td><div></div></td></tr></table></div></td></tr><tr><td style="font-weight:bold;vertical-align:top;">models_to_run</td><td style="vertical-align:top;">:</td><td><div><table><tr><td><div>^\\w+\\.py$</div></td></tr><tr><td><div>^senderoEsculturas/\\w+\\.py$</div></td></tr><tr><td><div>^senderoEsculturas/esculturasMarkers1/\\w+\\.py$</div></td></tr></table></div></td></tr><tr><td style="font-weight:bold;vertical-align:top;">postprocessing</td><td style="vertical-align:top;">:</td><td><div><table></table></div></td></tr><tr><td style="font-weight:bold;vertical-align:top;">session_client</td><td style="vertical-align:top;">:</td><td><div>127.0.0.1</div></td></tr><tr><td style="font-weight:bold;vertical-align:top;">session_cookie_compression_level</td><td style="vertical-align:top;">:</td><td><div>None</div></td></tr><tr><td style="font-weight:bold;vertical-align:top;">session_cookie_expires</td><td style="vertical-align:top;">:</td><td><div>None</div></td></tr><tr><td style="font-weight:bold;vertical-align:top;">session_data_name</td><td style="vertical-align:top;">:</td><td><div>session_data_guiartec</div></td></tr><tr><td style="font-weight:bold;vertical-align:top;">session_file</td><td style="vertical-align:top;">:</td><td><div>&lt;open file &#x27;G:\\\\web2py\\\\applications\\\\GuiArtec\\\\sessions\\\\07b\\\\0f3\\\\127.0.0.1-a4dbb156-15dc-4640-89f3-0ee85c5225ef&#x27;, mode &#x27;rb+&#x27; at 0x03D40F98&gt;</div></td></tr><tr><td style="font-weight:bold;vertical-align:top;">session_filename</td><td style="vertical-align:top;">:</td><td><div>G:\\web2py\\applications\\GuiArtec\\sessions\\127.0.0.1-a4dbb156-15dc-4640-89f3-0ee85c5225ef</div></td></tr><tr><td style="font-weight:bold;vertical-align:top;">session_hash</td><td style="vertical-align:top;">:</td><td><div>09a27e978c9551a0928acc9bc7eab502</div></td></tr><tr><td style="font-weight:bold;vertical-align:top;">session_id</td><td style="vertical-align:top;">:</td><td><div>127.0.0.1-a4dbb156-15dc-4640-89f3-0ee85c5225ef</div></td></tr><tr><td style="font-weight:bold;vertical-align:top;">session_id_name</td><td style="vertical-align:top;">:</td><td><div>session_id_guiartec</div></td></tr><tr><td style="font-weight:bold;vertical-align:top;">session_locked</td><td style="vertical-align:top;">:</td><td><div>True</div></td></tr><tr><td style="font-weight:bold;vertical-align:top;">session_masterapp</td><td style="vertical-align:top;">:</td><td><div>GuiArtec</div></td></tr><tr><td style="font-weight:bold;vertical-align:top;">session_new</td><td style="vertical-align:top;">:</td><td><div>False</div></td></tr><tr><td style="font-weight:bold;vertical-align:top;">session_storage_type</td><td style="vertical-align:top;">:</td><td><div>file</div></td></tr><tr><td style="font-weight:bold;vertical-align:top;">status</td><td style="vertical-align:top;">:</td><td><div>200</div></td></tr><tr><td style="font-weight:bold;vertical-align:top;">subtitle</td><td style="vertical-align:top;">:</td><td><div>Welcome to GuiArtec</div></td></tr><tr><td style="font-weight:bold;vertical-align:top;">title</td><td style="vertical-align:top;">:</td><td><div>GuiArtec</div></td></tr><tr><td style="font-weight:bold;vertical-align:top;">view</td><td style="vertical-align:top;">:</td><td><div>senderoEsculturas/esculturasMarkers1.html</div></td></tr></table></div>'
tRp156
sS'locals'
p157
(dp158
S'rows'
p159
S'<Rows (78)>'
p160
sS'place'
p161
S'{\'infoWindow\': {\'content\': "<h4 style=\'color:black;text-align:center\'El homb.../camino.file.9387f97e02f74aa7.31312e6a7067.jpg\'/>"}, \'lat\': -27.452349, \'lng\': -58.98871, \'location\': {\'lat\': -27.452349, \'lng\': -58.98871}, \'stopover\': True, \'title\': \'Nombre y foto\', \'type\': \'Escultura\'}'
p162
sS'places'
p163
S'[{\'infoWindow\': {\'content\': "<h4 style=\'color:black;text-align:center\'El Bosq...file.b5b97106c81c9c04.626f737175652e6a7067.jpg\'/>"}, \'lat\': -27.440654, \'lng\': -58.983429, \'location\': {\'lat\': -27.440654, \'lng\': -58.983429}, \'stopover\': True, \'title\': \'Nombre y foto\', \'type\': \'Escultura\'}, {\'infoWindow\': {\'content\': "<h4 style=\'color:black;text-align:center\'The Sym...amino.file.9947396afc878414.3434332e4a5047.JPG\'/>"}, \'lat\': -27.440916, \'lng\': -58.983547, \'location\': {\'lat\': -27.440916, \'lng\': -58.983547}, \'stopover\': True, \'title\': \'Nombre y foto\', \'type\': \'Escultura\'}, {\'infoWindow\': {\'content\': "<h4 style=\'color:black;text-align:center\'Chaco 2.../camino.file.ba419afd8b9f23c8.37322e6a7067.jpg\'/>"}, \'lat\': -27.441125, \'lng\': -58.983765, \'location\': {\'lat\': -27.441125, \'lng\': -58.983765}, \'stopover\': True, \'title\': \'Nombre y foto\', \'type\': \'Escultura\'}, {\'infoWindow\': {\'content\': "<h4 style=\'color:black;text-align:center\'Descono...25de7a03c0c.646573636f6e6f6369646f2e6a7067.jpg\'/>"}, \'lat\': -27.44221, \'lng\': -58.982085, \'location\': {\'lat\': -27.44221, \'lng\': -58.982085}, \'stopover\': True, \'title\': \'Nombre y foto\', \'type\': \'Escultura\'}, {\'infoWindow\': {\'content\': "<h4 style=\'color:black;text-align:center\'Mujer><...o.file.b668ca8e73bfd402.6d756a65722e6a7067.jpg\'/>"}, \'lat\': -27.445425, \'lng\': -58.98037, \'location\': {\'lat\': -27.445425, \'lng\': -58.98037}, \'stopover\': True, \'title\': \'Nombre y foto\', \'type\': \'Escultura\'}, {\'infoWindow\': {\'content\': "<h4 style=\'color:black;text-align:center\'Figura>...amino.file.b04a8029e725feb3.3235322e6a7067.jpg\'/>"}, \'lat\': -27.446353, \'lng\': -58.981307, \'location\': {\'lat\': -27.446353, \'lng\': -58.981307}, \'stopover\': True, \'title\': \'Nombre y foto\', \'type\': \'Escultura\'}, {\'infoWindow\': {\'content\': "<h4 style=\'color:black;text-align:center\'Germina...amino.file.b0af21a86abb6e50.3433382e4a5047.JPG\'/>"}, \'lat\': -27.447979, \'lng\': -58.9831, \'location\': {\'lat\': -27.447979, \'lng\': -58.9831}, \'stopover\': True, \'title\': \'Nombre y foto\', \'type\': \'Escultura\'}, {\'infoWindow\': {\'content\': "<h4 style=\'color:black;text-align:center\'Madre d...amino.file.a4c1c3ee6298034d.3432342e4a5047.JPG\'/>"}, \'lat\': -27.448231, \'lng\': -58.983386, \'location\': {\'lat\': -27.448231, \'lng\': -58.983386}, \'stopover\': True, \'title\': \'Nombre y foto\', \'type\': \'Escultura\'}, {\'infoWindow\': {\'content\': "<h4 style=\'color:black;text-align:center\'Mujer A...amino.file.88398e6380e032e9.3130392e6a7067.jpg\'/>"}, \'lat\': -27.448313, \'lng\': -58.983545, \'location\': {\'lat\': -27.448313, \'lng\': -58.983545}, \'stopover\': True, \'title\': \'Nombre y foto\', \'type\': \'Escultura\'}, {\'infoWindow\': {\'content\': "<h4 style=\'color:black;text-align:center\'Y as\\xc3\\xad ...amino.file.ac6c99c2de7ff366.3132312e6a7067.jpg\'/>"}, \'lat\': -27.4487, \'lng\': -58.98392, \'location\': {\'lat\': -27.4487, \'lng\': -58.98392}, \'stopover\': True, \'title\': \'Nombre y foto\', \'type\': \'Escultura\'}, {\'infoWindow\': {\'content\': "<h4 style=\'color:black;text-align:center\'Busto d...185bec137fb52.6775696c6c65726d6f422e6a7067.jpg\'/>"}, \'lat\': -27.449379, \'lng\': -58.984672, \'location\': {\'lat\': -27.449379, \'lng\': -58.984672}, \'stopover\': True, \'title\': \'Nombre y foto\', \'type\': \'Escultura\'}, {\'infoWindow\': {\'content\': "<h4 style=\'color:black;text-align:center\'Chaco><.../camino.file.9ff10cb6de2c6c55.37332e6a7067.jpg\'/>"}, \'lat\': -27.449381, \'lng\': -58.984675, \'location\': {\'lat\': -27.449381, \'lng\': -58.984675}, \'stopover\': True, \'title\': \'Nombre y foto\', \'type\': \'Escultura\'}, {\'infoWindow\': {\'content\': "<h4 style=\'color:black;text-align:center\'Busto d....af05adb9d6de08cb.646f6d696e676f662e6a7067.jpg\'/>"}, \'lat\': -27.449505, \'lng\': -58.984812, \'location\': {\'lat\': -27.449505, \'lng\': -58.984812}, \'stopover\': True, \'title\': \'Nombre y foto\', \'type\': \'Escultura\'}, {\'infoWindow\': {\'content\': "<h4 style=\'color:black;text-align:center\'Identid...a02fac90efd69a1.6964656e74696461642e6a7067.jpg\'/>"}, \'lat\': -27.449513, \'lng\': -58.986472, \'location\': {\'lat\': -27.449513, \'lng\': -58.986472}, \'stopover\': True, \'title\': \'Nombre y foto\', \'type\': \'Escultura\'}, {\'infoWindow\': {\'content\': "<h4 style=\'color:black;text-align:center\'P\\xc3\\xa9ndul.../camino.file.ac785b9bc09cb031.35312e6a7067.jpg\'/>"}, \'lat\': -27.449583, \'lng\': -58.986497, \'location\': {\'lat\': -27.449583, \'lng\': -58.986497}, \'stopover\': True, \'title\': \'Nombre y foto\', \'type\': \'Escultura\'}, {\'infoWindow\': {\'content\': "<h4 style=\'color:black;text-align:center\'Plegari.../camino.file.848bd1c16905c609.39372e6a7067.jpg\'/>"}, \'lat\': -27.449924, \'lng\': -58.986895, \'location\': {\'lat\': -27.449924, \'lng\': -58.986895}, \'stopover\': True, \'title\': \'Nombre y foto\', \'type\': \'Escultura\'}, {\'infoWindow\': {\'content\': "<h4 style=\'color:black;text-align:center\'Fernand...amino.file.b08543df92bc44cc.3136312e6a7067.jpg\'/>"}, \'lat\': -27.450294, \'lng\': -58.987327, \'location\': {\'lat\': -27.450294, \'lng\': -58.987327}, \'stopover\': True, \'title\': \'Nombre y foto\', \'type\': \'Escultura\'}, {\'infoWindow\': {\'content\': "<h4 style=\'color:black;text-align:center\'Espera>...amino.file.a832a6a10fea0f84.3130322e6a7067.jpg\'/>"}, \'lat\': -27.450411, \'lng\': -58.987454, \'location\': {\'lat\': -27.450411, \'lng\': -58.987454}, \'stopover\': True, \'title\': \'Nombre y foto\', \'type\': \'Escultura\'}, {\'infoWindow\': {\'content\': "<h4 style=\'color:black;text-align:center\'Inmacul.../camino.file.929569ef9939e39f.38392e6a7067.jpg\'/>"}, \'lat\': -27.451068, \'lng\': -58.988155, \'location\': {\'lat\': -27.451068, \'lng\': -58.988155}, \'stopover\': True, \'title\': \'Nombre y foto\', \'type\': \'Escultura\'}, {\'infoWindow\': {\'content\': "<h4 style=\'color:black;text-align:center\'San Fer.../camino.file.85ff5a760577982a.39302e6a7067.jpg\'/>"}, \'lat\': -27.451129, \'lng\': -58.988221, \'location\': {\'lat\': -27.451129, \'lng\': -58.988221}, \'stopover\': True, \'title\': \'Nombre y foto\', \'type\': \'Escultura\'}, ...]'
p164
sS'row'
p165
S"<Row {'direccion': 'Juan Domingo Per\\xc3\\xb3n 1'...9, 'nombre': None, 'lng': -58.989061, 'id': 34L}>"
p166
sssS'traceback'
p167
S'Traceback (most recent call last):\n  File "G:\\web2py\\gluon\\restricted.py", line 227, in restricted\n    exec ccode in environment\n  File "G:\\web2py\\applications\\GuiArtec\\controllers/senderoEsculturas.py", line 71, in <module>\n  File "G:\\web2py\\gluon\\globals.py", line 417, in <lambda>\n    self._caller = lambda f: f()\n  File "G:\\web2py\\applications\\GuiArtec\\controllers/senderoEsculturas.py", line 21, in esculturasMarkers1\n    \'infoWindow\': {\'content\': "<h4 style=\'color:black;text-align:center\'"+row.nombre+"></h4><p style=\'color:black;text-align:center\'>Direccion: "+row.direccion+"</p><img width =\'100px\' src=\'"+URL(\'download\',args=row.file)+"\'/>"},\nTypeError: cannot concatenate \'str\' and \'NoneType\' objects\n'
p168
s.